target datalayout = "e-m:e-p270:32:32-p271:32:32-p272:64:64-i64:64-i128:128-f80:128-n8:16:32:64-S128"
target triple = "x86_64-pc-linux-gnu"

%class.symbol = type { ptr }
%"class.datalog::check_relation" = type { %"class.datalog::relation_base.base", ptr, ptr, %class.obj_ref }
%"class.datalog::relation_base.base" = type { %"class.datalog::tr_infrastructure<datalog::relation_traits>::base_ancestor.base" }
%"class.datalog::tr_infrastructure<datalog::relation_traits>::base_ancestor.base" = type <{ ptr, ptr, %"class.datalog::relation_signature", i32 }>
%"class.datalog::relation_signature" = type { %"class.datalog::tr_infrastructure<datalog::relation_traits>::signature_base" }
%"class.datalog::tr_infrastructure<datalog::relation_traits>::signature_base" = type { %class.ptr_vector }
%class.ptr_vector = type { %class.vector }
%class.vector = type { ptr }
%class.obj_ref = type { ptr, ptr }
%"class.datalog::tr_infrastructure<datalog::relation_traits>::plugin_object" = type { ptr, i32, %class.symbol, ptr }
%"class.datalog::check_relation_plugin" = type { %"class.datalog::relation_plugin.base", ptr, ptr }
%"class.datalog::relation_plugin.base" = type <{ %"class.datalog::tr_infrastructure<datalog::relation_traits>::plugin_object", i32 }>
%"class.datalog::tr_infrastructure<datalog::relation_traits>::base_fn" = type { ptr }
%"class.datalog::tr_infrastructure<datalog::relation_traits>::mutator_fn" = type { %"class.datalog::tr_infrastructure<datalog::relation_traits>::base_fn" }
%class.scoped_ptr.166 = type { ptr }
%"class.datalog::check_relation_plugin::filter_equal_fn" = type <{ %"class.datalog::tr_infrastructure<datalog::relation_traits>::mutator_fn", %class.scoped_ptr.166, ptr, i32, [4 x i8] }>

@_ZTIN7datalog13relation_baseE = external constant ptr
@_ZTIN7datalog14check_relationE = hidden constant { ptr, ptr, ptr } { ptr getelementptr inbounds (ptr, ptr @_ZTVN10__cxxabiv120__si_class_type_infoE, i64 2), ptr @_ZTSN7datalog14check_relationE, ptr @_ZTIN7datalog13relation_baseE }, align 8

; Function Attrs: mustprogress nounwind uwtable
define linkonce_odr hidden void @_ZN7datalog17tr_infrastructureINS_15relation_traitsEE7base_fnC2Ev(ptr noundef nonnull align 8 dereferenceable(8) %0) unnamed_addr #5 comdat align 2 {
  %2 = alloca ptr, align 8
  store ptr %0, ptr %2, align 8, !tbaa !595
  %3 = load ptr, ptr %2, align 8
  store ptr getelementptr inbounds inrange(-16, 16) ({ [4 x ptr] }, ptr @_ZTVN7datalog17tr_infrastructureINS_15relation_traitsEE7base_fnE, i32 0, i32 0, i32 2), ptr %3, align 8, !tbaa !14
  ret void
}

; Function Attrs: mustprogress nounwind uwtable
define linkonce_odr hidden void @_ZN7datalog17tr_infrastructureINS_15relation_traitsEE7base_fnD2Ev(ptr noundef nonnull align 8 dereferenceable(8) %0) unnamed_addr #5 comdat align 2 {
  %2 = alloca ptr, align 8
  store ptr %0, ptr %2, align 8, !tbaa !595
  ret void
}

; Function Attrs: mustprogress nounwind uwtable
define linkonce_odr hidden void @_ZN10scoped_ptrIN7datalog17tr_infrastructureINS0_15relation_traitsEE10mutator_fnEEC2EPS4_(ptr noundef nonnull align 8 dereferenceable(8) %0, ptr noundef %1) unnamed_addr #5 comdat align 2 {
  %3 = alloca ptr, align 8
  %4 = alloca ptr, align 8
  store ptr %0, ptr %3, align 8, !tbaa !797
  store ptr %1, ptr %4, align 8, !tbaa !529
  %5 = load ptr, ptr %3, align 8
  %6 = getelementptr inbounds nuw %class.scoped_ptr.166, ptr %5, i32 0, i32 0
  %7 = load ptr, ptr %4, align 8, !tbaa !529
  store ptr %7, ptr %6, align 8, !tbaa !799
  ret void
}

; Function Attrs: inlinehint mustprogress nounwind uwtable
define linkonce_odr hidden void @_ZN7datalog17tr_infrastructureINS_15relation_traitsEE10mutator_fnC2Ev(ptr noundef nonnull align 8 dereferenceable(8) %0) unnamed_addr #10 comdat align 2 {
  %2 = alloca ptr, align 8
  store ptr %0, ptr %2, align 8, !tbaa !529
  %3 = load ptr, ptr %2, align 8
  call void @_ZN7datalog17tr_infrastructureINS_15relation_traitsEE7base_fnC2Ev(ptr noundef nonnull align 8 dereferenceable(8) %3) #3
  store ptr getelementptr inbounds inrange(-16, 40) ({ [7 x ptr] }, ptr @_ZTVN7datalog17tr_infrastructureINS_15relation_traitsEE10mutator_fnE, i32 0, i32 0, i32 2), ptr %3, align 8, !tbaa !14
  ret void
}

; Function Attrs: mustprogress uwtable
define linkonce_odr hidden void @_ZN7datalog21check_relation_plugin15filter_equal_fnC2EPNS_17tr_infrastructureINS_15relation_traitsEE10mutator_fnERKNS_13relation_baseEP3appj(ptr noundef nonnull align 8 dereferenceable(28) %0, ptr noundef %1, ptr noundef nonnull align 8 dereferenceable(28) %2, ptr noundef %3, i32 noundef %4) unnamed_addr #4 comdat align 2 personality ptr @__gxx_personality_v0 {
  %6 = alloca ptr, align 8
  %7 = alloca ptr, align 8
  %8 = alloca ptr, align 8
  %9 = alloca ptr, align 8
  %10 = alloca i32, align 4
  %11 = alloca ptr, align 8
  %12 = alloca i32, align 4
  store ptr %0, ptr %6, align 8, !tbaa !545
  store ptr %1, ptr %7, align 8, !tbaa !529
  store ptr %2, ptr %8, align 8, !tbaa !12
  store ptr %3, ptr %9, align 8, !tbaa !363
  store i32 %4, ptr %10, align 4, !tbaa !58
  %13 = load ptr, ptr %6, align 8
  call void @_ZN7datalog17tr_infrastructureINS_15relation_traitsEE10mutator_fnC2Ev(ptr noundef nonnull align 8 dereferenceable(8) %13) #3
  store ptr getelementptr inbounds inrange(-16, 40) ({ [7 x ptr] }, ptr @_ZTVN7datalog21check_relation_plugin15filter_equal_fnE, i32 0, i32 0, i32 2), ptr %13, align 8, !tbaa !14
  %14 = getelementptr inbounds nuw %"class.datalog::check_relation_plugin::filter_equal_fn", ptr %13, i32 0, i32 1
  %15 = load ptr, ptr %7, align 8, !tbaa !529
  invoke void @_ZN10scoped_ptrIN7datalog17tr_infrastructureINS0_15relation_traitsEE10mutator_fnEEC2EPS4_(ptr noundef nonnull align 8 dereferenceable(8) %14, ptr noundef %15)
          to label %16 unwind label %21

16:                                               ; preds = %5
  %17 = getelementptr inbounds nuw %"class.datalog::check_relation_plugin::filter_equal_fn", ptr %13, i32 0, i32 2
  %18 = load ptr, ptr %9, align 8, !tbaa !363
  store ptr %18, ptr %17, align 8, !tbaa !547
  %19 = getelementptr inbounds nuw %"class.datalog::check_relation_plugin::filter_equal_fn", ptr %13, i32 0, i32 3
  %20 = load i32, ptr %10, align 4, !tbaa !58
  store i32 %20, ptr %19, align 8, !tbaa !552
  ret void

21:                                               ; preds = %5
  %22 = landingpad { ptr, i32 }
          cleanup
  %23 = extractvalue { ptr, i32 } %22, 0
  store ptr %23, ptr %11, align 8
  %24 = extractvalue { ptr, i32 } %22, 1
  store i32 %24, ptr %12, align 4
  call void @_ZN7datalog17tr_infrastructureINS_15relation_traitsEE7base_fnD2Ev(ptr noundef nonnull align 8 dereferenceable(8) %13) #3
  br label %25

25:                                               ; preds = %21
  %26 = load ptr, ptr %11, align 8
  %27 = load i32, ptr %12, align 4
  %28 = insertvalue { ptr, i32 } poison, ptr %26, 0
  %29 = insertvalue { ptr, i32 } %28, i32 %27, 1
  resume { ptr, i32 } %29
}

; Function Attrs: mustprogress nounwind uwtable
define linkonce_odr hidden noundef nonnull align 8 dereferenceable(28) ptr @_ZNK7datalog14check_relation2rbEv(ptr noundef nonnull align 8 dereferenceable(64) %0) #5 comdat align 2 {
  %2 = alloca ptr, align 8
  store ptr %0, ptr %2, align 8, !tbaa !3
  %3 = load ptr, ptr %2, align 8
  %4 = getelementptr inbounds nuw %"class.datalog::check_relation", ptr %3, i32 0, i32 2
  %5 = load ptr, ptr %4, align 8, !tbaa !18
  ret ptr %5
}

; Function Attrs: mustprogress uwtable
define hidden noundef nonnull align 8 dereferenceable(64) ptr @_ZN7datalog21check_relation_plugin3getERKNS_13relation_baseE(ptr noundef nonnull align 8 dereferenceable(28) %0) #4 align 2 {
  %2 = alloca ptr, align 8
  store ptr %0, ptr %2, align 8, !tbaa !12
  %3 = load ptr, ptr %2, align 8, !tbaa !12
  %4 = call ptr @__dynamic_cast(ptr %3, ptr @_ZTIN7datalog13relation_baseE, ptr @_ZTIN7datalog14check_relationE, i64 0) #3
  %5 = icmp eq ptr %4, null
  br i1 %5, label %6, label %7

6:                                                ; preds = %1
  call void @__cxa_bad_cast() #22
  unreachable

7:                                                ; preds = %1
  ret ptr %4
}

; Function Attrs: mustprogress uwtable
define hidden noundef ptr @_ZN7datalog21check_relation_plugin18mk_filter_equal_fnERKNS_13relation_baseERKP3appj(ptr noundef nonnull align 8 dereferenceable(56) %0, ptr noundef nonnull align 8 dereferenceable(28) %1, ptr noundef nonnull align 8 dereferenceable(8) %2, i32 noundef %3) unnamed_addr #4 align 2 {
  %5 = alloca ptr, align 8
  %6 = alloca ptr, align 8
  %7 = alloca ptr, align 8
  %8 = alloca i32, align 4
  %9 = alloca ptr, align 8
  store ptr %0, ptr %5, align 8, !tbaa !8
  store ptr %1, ptr %6, align 8, !tbaa !12
  store ptr %2, ptr %7, align 8, !tbaa !544
  store i32 %3, ptr %8, align 4, !tbaa !58
  %10 = load ptr, ptr %5, align 8
  call void @llvm.lifetime.start.p0(i64 8, ptr %9) #3
  %11 = getelementptr inbounds nuw %"class.datalog::check_relation_plugin", ptr %10, i32 0, i32 2
  %12 = load ptr, ptr %11, align 8, !tbaa !182
  %13 = load ptr, ptr %6, align 8, !tbaa !12
  %14 = call noundef nonnull align 8 dereferenceable(64) ptr @_ZN7datalog21check_relation_plugin3getERKNS_13relation_baseE(ptr noundef nonnull align 8 dereferenceable(28) %13)
  %15 = call noundef nonnull align 8 dereferenceable(28) ptr @_ZNK7datalog14check_relation2rbEv(ptr noundef nonnull align 8 dereferenceable(64) %14)
  %16 = load ptr, ptr %7, align 8, !tbaa !544
  %17 = load i32, ptr %8, align 4, !tbaa !58
  %18 = load ptr, ptr %12, align 8, !tbaa !14
  %19 = getelementptr inbounds ptr, ptr %18, i64 18
  %20 = load ptr, ptr %19, align 8
  %21 = call noundef ptr %20(ptr noundef nonnull align 8 dereferenceable(32) %12, ptr noundef nonnull align 8 dereferenceable(28) %15, ptr noundef nonnull align 8 dereferenceable(8) %16, i32 noundef %17)
  store ptr %21, ptr %9, align 8, !tbaa !529
  %22 = load ptr, ptr %9, align 8, !tbaa !529
  %23 = icmp ne ptr %22, null
  br i1 %23, label %24, label %31

24:                                               ; preds = %4
  %25 = call noalias noundef ptr @_ZN6memory8allocateEm(i64 noundef 32)
  %26 = load ptr, ptr %9, align 8, !tbaa !529
  %27 = load ptr, ptr %6, align 8, !tbaa !12
  %28 = load ptr, ptr %7, align 8, !tbaa !544
  %29 = load ptr, ptr %28, align 8, !tbaa !363
  %30 = load i32, ptr %8, align 4, !tbaa !58
  call void @_ZN7datalog21check_relation_plugin15filter_equal_fnC2EPNS_17tr_infrastructureINS_15relation_traitsEE10mutator_fnERKNS_13relation_baseEP3appj(ptr noundef nonnull align 8 dereferenceable(28) %25, ptr noundef %26, ptr noundef nonnull align 8 dereferenceable(28) %27, ptr noundef %29, i32 noundef %30)
  br label %32

31:                                               ; preds = %4
  br label %32

32:                                               ; preds = %31, %24
  %33 = phi ptr [ %25, %24 ], [ null, %31 ]
  call void @llvm.lifetime.end.p0(i64 8, ptr %9) #3
  ret ptr %33
}