; Function Attrs: mustprogress uwtable
define hidden noundef ptr @_ZN7datalog21check_relation_plugin18mk_filter_equal_fnERKNS_13relation_baseERKP3appj(ptr noundef nonnull readonly align 8 captures(none) dereferenceable(56) %0, ptr noundef nonnull readonly align 8 dereferenceable(28) %1, ptr noundef nonnull align 8 dereferenceable(8) %2, i32 noundef %3) unnamed_addr #3 align 2 personality ptr @__gxx_personality_v0 {
  %5 = tail call ptr @__dynamic_cast(ptr nonnull readonly align 8 dereferenceable(28) %1, ptr nonnull @_ZTIN7datalog13relation_baseE, ptr nonnull @_ZTIN7datalog14check_relationE, i64 0) #24
  %6 = icmp eq ptr %5, null
  br i1 %6, label %7, label %_ZN7datalog21check_relation_plugin3getERKNS_13relation_baseE.exit

7:                                                ; preds = %4
  tail call void @__cxa_bad_cast() #27
  unreachable

_ZN7datalog21check_relation_plugin3getERKNS_13relation_baseE.exit: ; preds = %4
  %8 = getelementptr inbounds nuw i8, ptr %0, i64 48
  %9 = load ptr, ptr %8, align 8, !tbaa !384
  %10 = getelementptr inbounds nuw i8, ptr %5, i64 40
  %11 = load ptr, ptr %10, align 8, !tbaa !29
  %12 = load ptr, ptr %9, align 8, !tbaa !3
  %13 = getelementptr inbounds nuw i8, ptr %12, i64 144
  %14 = load ptr, ptr %13, align 8
  %15 = tail call noundef ptr %14(ptr noundef nonnull align 8 dereferenceable(32) %9, ptr noundef nonnull align 8 dereferenceable(28) %11, ptr noundef nonnull align 8 dereferenceable(8) %2, i32 noundef %3)
  %.not = icmp eq ptr %15, null
  br i1 %.not, label %22, label %16

16:                                               ; preds = %_ZN7datalog21check_relation_plugin3getERKNS_13relation_baseE.exit
  %17 = tail call noalias noundef ptr @_ZN6memory8allocateEm(i64 noundef 32)
  %18 = load ptr, ptr %2, align 8, !tbaa !72
  store ptr getelementptr inbounds nuw inrange(-16, 40) (i8, ptr @_ZTVN7datalog21check_relation_plugin15filter_equal_fnE, i64 16), ptr %17, align 8, !tbaa !3
  %19 = getelementptr inbounds nuw i8, ptr %17, i64 8
  store ptr %15, ptr %19, align 8, !tbaa !636
  %20 = getelementptr inbounds nuw i8, ptr %17, i64 16
  store ptr %18, ptr %20, align 8, !tbaa !644
  %21 = getelementptr inbounds nuw i8, ptr %17, i64 24
  store i32 %3, ptr %21, align 8, !tbaa !648
  br label %22

22:                                               ; preds = %_ZN7datalog21check_relation_plugin3getERKNS_13relation_baseE.exit, %16
  %23 = phi ptr [ %17, %16 ], [ null, %_ZN7datalog21check_relation_plugin3getERKNS_13relation_baseE.exit ]
  ret ptr %23
}